SF:/Users/garthdb/Projects/rust-things3/libs/things3-common/src/constants.rs
FN:41,_RNvNtNtCsaD5PKqkudqX_14things3_common9constants5testss_17test_database_dir
FN:66,_RNvNtNtCsaD5PKqkudqX_14things3_common9constants5testss_17test_date_formats
FN:56,_RNvNtNtCsaD5PKqkudqX_14things3_common9constants5testss_20test_max_query_limit
FN:74,_RNvNtNtCsaD5PKqkudqX_14things3_common9constants5testss_21test_datetime_formats
FN:61,_RNvNtNtCsaD5PKqkudqX_14things3_common9constants5testss_21test_default_mcp_port
FN:46,_RNvNtNtCsaD5PKqkudqX_14things3_common9constants5testss_21test_things_container
FN:36,_RNvNtNtCsaD5PKqkudqX_14things3_common9constants5testss_22test_database_filename
FN:51,_RNvNtNtCsaD5PKqkudqX_14things3_common9constants5testss_24test_default_query_limit
FN:82,_RNvNtNtCsaD5PKqkudqX_14things3_common9constants5testss_25test_constants_are_public
FNDA:1,_RNvNtNtCsaD5PKqkudqX_14things3_common9constants5testss_17test_database_dir
FNDA:1,_RNvNtNtCsaD5PKqkudqX_14things3_common9constants5testss_17test_date_formats
FNDA:1,_RNvNtNtCsaD5PKqkudqX_14things3_common9constants5testss_20test_max_query_limit
FNDA:1,_RNvNtNtCsaD5PKqkudqX_14things3_common9constants5testss_21test_datetime_formats
FNDA:1,_RNvNtNtCsaD5PKqkudqX_14things3_common9constants5testss_21test_default_mcp_port
FNDA:1,_RNvNtNtCsaD5PKqkudqX_14things3_common9constants5testss_21test_things_container
FNDA:1,_RNvNtNtCsaD5PKqkudqX_14things3_common9constants5testss_22test_database_filename
FNDA:1,_RNvNtNtCsaD5PKqkudqX_14things3_common9constants5testss_24test_default_query_limit
FNDA:1,_RNvNtNtCsaD5PKqkudqX_14things3_common9constants5testss_25test_constants_are_public
FNF:9
FNH:9
DA:36,1
DA:37,1
DA:38,1
DA:41,1
DA:42,1
DA:43,1
DA:46,1
DA:47,1
DA:48,1
DA:51,1
DA:52,1
DA:53,1
DA:56,1
DA:57,1
DA:58,1
DA:61,1
DA:62,1
DA:63,1
DA:66,1
DA:67,1
DA:68,1
DA:69,1
DA:70,1
DA:71,1
DA:74,1
DA:75,1
DA:76,1
DA:77,1
DA:78,1
DA:79,1
DA:82,1
DA:84,1
DA:85,1
DA:86,1
DA:87,1
DA:88,1
DA:89,1
DA:90,1
DA:91,1
DA:92,1
BRF:0
BRH:0
LF:40
LH:40
end_of_record
SF:/Users/garthdb/Projects/rust-things3/libs/things3-common/src/utils.rs
FN:82,_RNvNtNtCsaD5PKqkudqX_14things3_common5utils5testss_16test_format_date
FN:107,_RNvNtNtCsaD5PKqkudqX_14things3_common5utils5testss_20test_format_datetime
FN:132,_RNvNtNtCsaD5PKqkudqX_14things3_common5utils5testss_21test_parse_date_valid
FN:295,_RNvNtNtCsaD5PKqkudqX_14things3_common5utils5testss_22test_utils_integration
FN:582,_RNvNtNtCsaD5PKqkudqX_14things3_common5utils5testss_22test_utils_performance
FN:169,_RNvNtNtCsaD5PKqkudqX_14things3_common5utils5testss_23test_parse_date_invalid
FN:192,_RNvNtNtCsaD5PKqkudqX_14things3_common5utils5testss_24test_is_valid_uuid_valid
FN:226,_RNvNtNtCsaD5PKqkudqX_14things3_common5utils5testss_25test_truncate_string_long
FN:573,_RNvNtNtCsaD5PKqkudqX_14things3_common5utils5testss_25test_utils_error_handling
FN:202,_RNvNtNtCsaD5PKqkudqX_14things3_common5utils5testss_26test_is_valid_uuid_invalid
FN:142,_RNvNtNtCsaD5PKqkudqX_14things3_common5utils5testss_26test_parse_date_edge_cases
FN:264,_RNvNtNtCsaD5PKqkudqX_14things3_common5utils5testss_26test_truncate_string_empty
FN:215,_RNvNtNtCsaD5PKqkudqX_14things3_common5utils5testss_26test_truncate_string_short
FN:89,_RNvNtNtCsaD5PKqkudqX_14things3_common5utils5testss_27test_format_date_edge_cases
FN:363,_RNvNtNtCsaD5PKqkudqX_14things3_common5utils5testss_28test_format_date_consistency
FN:275,_RNvNtNtCsaD5PKqkudqX_14things3_common5utils5testss_28test_truncate_string_unicode
FN:122,_RNvNtNtCsaD5PKqkudqX_14things3_common5utils5testss_29test_format_datetime_specific
FN:546,_RNvNtNtCsaD5PKqkudqX_14things3_common5utils5testss_29test_is_valid_uuid_edge_cases
FN:61,_RNvNtNtCsaD5PKqkudqX_14things3_common5utils5testss_30test_get_default_database_path
FN:286,_RNvNtNtCsaD5PKqkudqX_14things3_common5utils5testss_30test_truncate_string_very_long
FN:514,_RNvNtNtCsaD5PKqkudqX_14things3_common5utils5testss_31test_format_datetime_edge_cases
FN:531,_RNvNtNtCsaD5PKqkudqX_14things3_common5utils5testss_31test_parse_date_boundary_values
FN:237,_RNvNtNtCsaD5PKqkudqX_14things3_common5utils5testss_31test_truncate_string_edge_cases
FN:558,_RNvNtNtCsaD5PKqkudqX_14things3_common5utils5testss_40test_truncate_string_boundary_conditions
FN:310,_RNvNtNtCsaD5PKqkudqX_14things3_common5utils5testss_42test_get_default_database_path_consistency
FN:372,_RNvNtNtCsaD5PKqkudqX_14things3_common5utils5testss_43test_get_default_database_path_with_no_home
FN:455,_RNvNtNtCsaD5PKqkudqX_14things3_common5utils5testss_48test_get_default_database_path_starts_with_tilde
FN:490,_RNvNtNtCsaD5PKqkudqX_14things3_common5utils5testss_49test_get_default_database_path_or_branch_coverage
FN:415,_RNvNtNtCsaD5PKqkudqX_14things3_common5utils5testss_55test_get_default_database_path_with_no_home_and_restore
FN:9,_RNCNvNtCsaD5PKqkudqX_14things3_common5utils25get_default_database_path0B5_
FN:31,_RNvNtCsaD5PKqkudqX_14things3_common5utils10parse_date
FN:17,_RNvNtCsaD5PKqkudqX_14things3_common5utils11format_date
FN:37,_RNvNtCsaD5PKqkudqX_14things3_common5utils13is_valid_uuid
FN:23,_RNvNtCsaD5PKqkudqX_14things3_common5utils15format_datetime
FN:43,_RNvNtCsaD5PKqkudqX_14things3_common5utils15truncate_string
FN:8,_RNvNtCsaD5PKqkudqX_14things3_common5utils25get_default_database_path
FNDA:1,_RNvNtNtCsaD5PKqkudqX_14things3_common5utils5testss_16test_format_date
FNDA:1,_RNvNtNtCsaD5PKqkudqX_14things3_common5utils5testss_20test_format_datetime
FNDA:1,_RNvNtNtCsaD5PKqkudqX_14things3_common5utils5testss_21test_parse_date_valid
FNDA:1,_RNvNtNtCsaD5PKqkudqX_14things3_common5utils5testss_22test_utils_integration
FNDA:1,_RNvNtNtCsaD5PKqkudqX_14things3_common5utils5testss_22test_utils_performance
FNDA:1,_RNvNtNtCsaD5PKqkudqX_14things3_common5utils5testss_23test_parse_date_invalid
FNDA:1,_RNvNtNtCsaD5PKqkudqX_14things3_common5utils5testss_24test_is_valid_uuid_valid
FNDA:1,_RNvNtNtCsaD5PKqkudqX_14things3_common5utils5testss_25test_truncate_string_long
FNDA:1,_RNvNtNtCsaD5PKqkudqX_14things3_common5utils5testss_25test_utils_error_handling
FNDA:1,_RNvNtNtCsaD5PKqkudqX_14things3_common5utils5testss_26test_is_valid_uuid_invalid
FNDA:1,_RNvNtNtCsaD5PKqkudqX_14things3_common5utils5testss_26test_parse_date_edge_cases
FNDA:1,_RNvNtNtCsaD5PKqkudqX_14things3_common5utils5testss_26test_truncate_string_empty
FNDA:1,_RNvNtNtCsaD5PKqkudqX_14things3_common5utils5testss_26test_truncate_string_short
FNDA:1,_RNvNtNtCsaD5PKqkudqX_14things3_common5utils5testss_27test_format_date_edge_cases
FNDA:1,_RNvNtNtCsaD5PKqkudqX_14things3_common5utils5testss_28test_format_date_consistency
FNDA:1,_RNvNtNtCsaD5PKqkudqX_14things3_common5utils5testss_28test_truncate_string_unicode
FNDA:1,_RNvNtNtCsaD5PKqkudqX_14things3_common5utils5testss_29test_format_datetime_specific
FNDA:1,_RNvNtNtCsaD5PKqkudqX_14things3_common5utils5testss_29test_is_valid_uuid_edge_cases
FNDA:1,_RNvNtNtCsaD5PKqkudqX_14things3_common5utils5testss_30test_get_default_database_path
FNDA:1,_RNvNtNtCsaD5PKqkudqX_14things3_common5utils5testss_30test_truncate_string_very_long
FNDA:1,_RNvNtNtCsaD5PKqkudqX_14things3_common5utils5testss_31test_format_datetime_edge_cases
FNDA:1,_RNvNtNtCsaD5PKqkudqX_14things3_common5utils5testss_31test_parse_date_boundary_values
FNDA:1,_RNvNtNtCsaD5PKqkudqX_14things3_common5utils5testss_31test_truncate_string_edge_cases
FNDA:1,_RNvNtNtCsaD5PKqkudqX_14things3_common5utils5testss_40test_truncate_string_boundary_conditions
FNDA:1,_RNvNtNtCsaD5PKqkudqX_14things3_common5utils5testss_42test_get_default_database_path_consistency
FNDA:1,_RNvNtNtCsaD5PKqkudqX_14things3_common5utils5testss_43test_get_default_database_path_with_no_home
FNDA:1,_RNvNtNtCsaD5PKqkudqX_14things3_common5utils5testss_48test_get_default_database_path_starts_with_tilde
FNDA:1,_RNvNtNtCsaD5PKqkudqX_14things3_common5utils5testss_49test_get_default_database_path_or_branch_coverage
FNDA:1,_RNvNtNtCsaD5PKqkudqX_14things3_common5utils5testss_55test_get_default_database_path_with_no_home_and_restore
FNDA:4,_RNCNvNtCsaD5PKqkudqX_14things3_common5utils25get_default_database_path0B5_
FNDA:21,_RNvNtCsaD5PKqkudqX_14things3_common5utils10parse_date
FNDA:6,_RNvNtCsaD5PKqkudqX_14things3_common5utils11format_date
FNDA:17,_RNvNtCsaD5PKqkudqX_14things3_common5utils13is_valid_uuid
FNDA:4,_RNvNtCsaD5PKqkudqX_14things3_common5utils15format_datetime
FNDA:20,_RNvNtCsaD5PKqkudqX_14things3_common5utils15truncate_string
FNDA:9,_RNvNtCsaD5PKqkudqX_14things3_common5utils25get_default_database_path
FNF:36
FNH:36
DA:8,9
DA:9,9
DA:10,9
DA:11,9
DA:13,9
DA:17,6
DA:18,6
DA:19,6
DA:23,4
DA:24,4
DA:25,4
DA:31,21
DA:32,21
DA:33,21
DA:37,17
DA:38,17
DA:39,17
DA:43,20
DA:44,20
DA:45,6
DA:47,14
DA:49,20
DA:61,1
DA:62,1
DA:65,1
DA:66,1
DA:67,1
DA:68,1
DA:69,1
DA:70,1
DA:71,1
DA:72,1
DA:73,1
DA:74,1
DA:77,1
DA:78,1
DA:79,1
DA:82,1
DA:83,1
DA:84,1
DA:85,1
DA:86,1
DA:89,1
DA:91,1
DA:92,1
DA:93,1
DA:96,1
DA:97,1
DA:98,1
DA:101,1
DA:102,1
DA:103,1
DA:104,1
DA:107,1
DA:108,1
DA:109,1
DA:112,1
DA:113,1
DA:114,1
DA:115,1
DA:118,1
DA:119,1
DA:122,1
DA:124,1
DA:125,1
DA:126,1
DA:127,1
DA:128,1
DA:129,1
DA:132,1
DA:133,1
DA:134,1
DA:135,1
DA:136,1
DA:137,1
DA:138,1
DA:139,1
DA:142,1
DA:144,1
DA:145,1
DA:146,1
DA:147,1
DA:148,1
DA:149,1
DA:152,1
DA:153,1
DA:154,1
DA:155,1
DA:156,1
DA:157,1
DA:160,1
DA:161,1
DA:162,1
DA:163,1
DA:164,1
DA:165,1
DA:166,1
DA:169,1
DA:171,1
DA:172,1
DA:175,1
DA:176,1
DA:179,1
DA:180,1
DA:183,1
DA:184,1
DA:187,1
DA:188,1
DA:189,1
DA:192,1
DA:194,1
DA:195,1
DA:196,1
DA:197,1
DA:198,1
DA:199,1
DA:202,1
DA:204,1
DA:205,1
DA:206,1
DA:207,1
DA:208,1
DA:209,1
DA:210,1
DA:211,1
DA:212,1
DA:215,1
DA:217,1
DA:218,1
DA:221,1
DA:222,1
DA:223,1
DA:226,1
DA:228,1
DA:229,1
DA:232,1
DA:233,1
DA:234,1
DA:237,1
DA:239,1
DA:240,1
DA:243,1
DA:244,1
DA:247,1
DA:248,1
DA:251,1
DA:252,1
DA:255,1
DA:256,1
DA:259,1
DA:260,1
DA:261,1
DA:264,1
DA:266,1
DA:267,1
DA:270,1
DA:271,1
DA:272,1
DA:275,1
DA:277,1
DA:278,1
DA:281,1
DA:282,1
DA:283,1
DA:286,1
DA:288,1
DA:289,1
DA:290,1
DA:291,1
DA:292,1
DA:295,1
DA:297,1
DA:298,1
DA:299,1
DA:300,1
DA:303,1
DA:304,1
DA:305,1
DA:306,1
DA:307,1
DA:310,1
DA:311,1
DA:317,1
DA:320,1
DA:321,1
DA:322,1
DA:325,1
DA:327,0
DA:329,1
DA:331,0
DA:335,1
DA:336,1
DA:337,1
DA:338,0
DA:340,1
DA:341,1
DA:342,0
DA:344,1
DA:345,1
DA:346,0
DA:350,1
DA:351,1
DA:352,0
DA:356,1
DA:357,1
DA:358,0
DA:360,1
DA:363,1
DA:365,1
DA:366,1
DA:367,1
DA:368,1
DA:369,1
DA:372,1
DA:373,1
DA:376,1
DA:377,1
DA:379,1
DA:380,1
DA:384,1
DA:385,1
DA:386,1
DA:387,0
DA:389,1
DA:390,1
DA:391,0
DA:393,1
DA:394,1
DA:395,0
DA:400,1
DA:401,1
DA:403,1
DA:404,1
DA:405,0
DA:409,1
DA:410,1
DA:411,1
DA:412,1
DA:415,1
DA:416,1
DA:419,1
DA:422,1
DA:425,1
DA:428,1
DA:430,1
DA:431,1
DA:435,1
DA:436,1
DA:437,1
DA:438,0
DA:442,0
DA:446,1
DA:447,1
DA:448,1
DA:449,0
DA:450,0
DA:451,0
DA:452,1
DA:455,1
DA:456,1
DA:459,1
DA:460,1
DA:463,1
DA:465,1
DA:466,1
DA:469,1
DA:473,1
DA:474,1
DA:475,1
DA:476,0
DA:480,0
DA:484,1
DA:485,1
DA:486,1
DA:487,1
DA:490,1
DA:491,1
DA:494,1
DA:497,1
DA:498,1
DA:499,1
DA:502,1
DA:503,1
DA:504,1
DA:505,1
DA:508,1
DA:509,1
DA:510,1
DA:511,1
DA:514,1
DA:516,1
DA:517,1
DA:518,1
DA:519,1
DA:520,1
DA:523,1
DA:524,1
DA:525,1
DA:526,1
DA:527,1
DA:528,1
DA:531,1
DA:533,1
DA:534,1
DA:537,1
DA:538,1
DA:541,1
DA:542,1
DA:543,1
DA:546,1
DA:548,1
DA:551,1
DA:554,1
DA:555,1
DA:558,1
DA:560,1
DA:561,1
DA:564,1
DA:565,1
DA:568,1
DA:569,1
DA:570,1
DA:573,1
DA:575,1
DA:576,1
DA:577,1
DA:578,1
DA:579,1
DA:582,1
DA:584,1
DA:585,1
DA:586,1
DA:587,1
DA:588,1
BRF:0
BRH:0
LF:335
LH:317
end_of_record
SF:/private/tmp/rust-20250911-8302-9bo2pv/rustc-1.89.0-src/library/core/src/panic.rs
FN:99,_RINvNvMNtCsizg4Hy2wvIj_6chrono5naiveNtB5_9NaiveWeek4days18panic_cold_displaypEB7_
FN:99,_RINvNvCsizg4Hy2wvIj_6chrono6expect18panic_cold_displayReEB4_
FN:87,_RNvNvXs6_NtCs2S32HPRY1mr_10serde_core2deNtB7_5OneOfNtNtCs99E9PC2tmbt_4core3fmt7Display3fmt19panic_cold_explicit
FNDA:0,_RINvNvMNtCsizg4Hy2wvIj_6chrono5naiveNtB5_9NaiveWeek4days18panic_cold_displaypEB7_
FNDA:0,_RINvNvCsizg4Hy2wvIj_6chrono6expect18panic_cold_displayReEB4_
FNDA:0,_RNvNvXs6_NtCs2S32HPRY1mr_10serde_core2deNtB7_5OneOfNtNtCs99E9PC2tmbt_4core3fmt7Display3fmt19panic_cold_explicit
FNF:2
FNH:0
DA:87,0
DA:88,0
DA:99,0
DA:100,0
BRF:0
BRH:0
LF:4
LH:0
end_of_record
SF:/private/tmp/rust-20250911-8302-9bo2pv/rustc-1.89.0-src/library/std/src/sys/thread_local/native/mod.rs
FN:94,_RNCNkNvNtNtNtCsizg4Hy2wvIj_6chrono6offset5local5inner7TZ_INFO00Bb_
FN:83,_RNvNvNtNtNtCsizg4Hy2wvIj_6chrono6offset5local5inner7TZ_INFO6___initB9_
FN:101,_RNCNkNvNtNtNtCsizg4Hy2wvIj_6chrono6offset5local5inner7TZ_INFO0s_0Bb_
FNDA:0,_RNCNkNvNtNtNtCsizg4Hy2wvIj_6chrono6offset5local5inner7TZ_INFO00Bb_
FNDA:0,_RNvNvNtNtNtCsizg4Hy2wvIj_6chrono6offset5local5inner7TZ_INFO6___initB9_
FNDA:0,_RNCNkNvNtNtNtCsizg4Hy2wvIj_6chrono6offset5local5inner7TZ_INFO0s_0Bb_
FNF:3
FNH:0
DA:83,0
DA:94,0
DA:101,0
BRF:0
BRH:0
LF:3
LH:0
end_of_record